cnumpy.core.multiarray
_reconstruct
p0
(cnumpy
ndarray
p1
(I0
tp2
S'b'
p3
tp4
Rp5
(I1
(I18
tp6
cnumpy
dtype
p7
(S'O8'
p8
I0
I1
tp9
Rp10
(I3
S'|'
p11
NNNI-1
I-1
I63
tp12
bI00
(lp13
S'poi'
p14
aS'bonus'
p15
aS'deferred_income'
p16
aS'director_fees'
p17
aS'exercised_stock_options'
p18
aS'expenses'
p19
aS'from_poi_to_this_person'
p20
aS'from_this_person_to_poi'
p21
aS'loan_advances'
p22
aS'long_term_incentive'
p23
aS'other'
p24
aS'restricted_stock'
p25
aS'salary'
p26
aS'shared_receipt_with_poi'
p27
aS'total_payments'
p28
aS'total_stock_value'
p29
aS'to_poi_ratio'
p30
aS'from_poi_ratio'
p31
atp32
b.