cnumpy.core.multiarray
_reconstruct
p0
(cnumpy
ndarray
p1
(I0
tp2
S'b'
p3
tp4
Rp5
(I1
(I8
tp6
cnumpy
dtype
p7
(S'O8'
p8
I0
I1
tp9
Rp10
(I3
S'|'
p11
NNNI-1
I-1
I63
tp12
bI00
(lp13
S'poi'
p14
aS'bonus'
p15
aS'deferred_income'
p16
aS'exercised_stock_options'
p17
aS'long_term_incentive'
p18
aS'salary'
p19
aS'total_stock_value'
p20
aS'to_poi_ratio'
p21
atp22
b.